; Function Attrs: nounwind uwtable
define dso_local range(i32 0, 2) i32 @quicklistDelIndex(ptr noundef %0, ptr noundef %1, ptr noundef %2) local_unnamed_addr #1 {
  %4 = getelementptr inbounds nuw i8, ptr %1, i64 32
  %5 = load i32, ptr %4, align 8
  %6 = and i32 %5, 786432
  %7 = icmp eq i32 %6, 262144
  br i1 %7, label %8, label %9, !prof !24

8:                                                ; preds = %3
  tail call void @__quicklistDelNode(ptr noundef %0, ptr noundef nonnull %1)
  br label %29

9:                                                ; preds = %3
  %10 = getelementptr inbounds nuw i8, ptr %1, i64 16
  %11 = load ptr, ptr %10, align 8, !tbaa !9
  %12 = load ptr, ptr %2, align 8, !tbaa !32
  %13 = tail call ptr @lpDelete(ptr noundef %11, ptr noundef %12, ptr noundef nonnull %2) #23
  store ptr %13, ptr %10, align 8, !tbaa !9
  %14 = load i32, ptr %4, align 8
  %15 = add i32 %14, 65535
  %16 = and i32 %15, 65535
  %17 = and i32 %14, -65536
  %18 = or disjoint i32 %16, %17
  store i32 %18, ptr %4, align 8
  %19 = and i32 %14, 65535
  %.not = icmp eq i32 %19, 1
  br i1 %.not, label %20, label %21

20:                                               ; preds = %9
  tail call void @__quicklistDelNode(ptr noundef %0, ptr noundef nonnull %1)
  br label %24

21:                                               ; preds = %9
  %22 = tail call i64 @lpBytes(ptr noundef %13) #23
  %23 = getelementptr inbounds nuw i8, ptr %1, i64 24
  store i64 %22, ptr %23, align 8, !tbaa !15
  br label %24

24:                                               ; preds = %21, %20
  %25 = getelementptr inbounds nuw i8, ptr %0, i64 16
  %26 = load i64, ptr %25, align 8, !tbaa !5
  %27 = add i64 %26, -1
  store i64 %27, ptr %25, align 8, !tbaa !5
  %28 = zext i1 %.not to i32
  br label %29

29:                                               ; preds = %24, %8
  %.015 = phi i32 [ 1, %8 ], [ %28, %24 ]
  ret i32 %.015
}